#include <math.h>
#include <stdio.h>
#include <stdlib.h>
#include <string.h>

int main()
{
	int m,n,i;
	double a[100],s,d,*b;
	
	scanf("%d",&m);
	while(m--)
	{
		b=&a[0];
		s=0;d=0;
		scanf("%d",&n);
		for(i=0;i<n;i++)
		{scanf("%lf",b+i);
		s=s+*(b+i);}
		s=s/n;
		for(i=0;i<n;i++)
		d=d+(*(b+i)-s)*(*(b+i)-s);
		d=d/n;
		d=sqrt(d);
		printf("%.5f\n",d);
		}
}
