; ModuleID = '38/218.c'
source_filename = "38/218.c"
target datalayout = "e-m:e-p270:32:32-p271:32:32-p272:64:64-i64:64-f80:128-n8:16:32:64-S128"
target triple = "x86_64-pc-linux-gnu"

@.str = private unnamed_addr constant [3 x i8] c"%d\00", align 1
@.str.1 = private unnamed_addr constant [4 x i8] c"%lf\00", align 1
@.str.2 = private unnamed_addr constant [6 x i8] c"%.5f\0A\00", align 1

; Function Attrs: noinline nounwind uwtable
define dso_local i32 @main() #0 {
  %1 = alloca i32, align 4
  %2 = alloca i32, align 4
  %3 = alloca i32, align 4
  %4 = alloca i32, align 4
  %5 = alloca [100 x double], align 16
  %6 = alloca double, align 8
  %7 = alloca double, align 8
  %8 = alloca double*, align 8
  store i32 0, i32* %1, align 4
  %9 = call i32 (i8*, ...) @__isoc99_scanf(i8* getelementptr inbounds ([3 x i8], [3 x i8]* @.str, i64 0, i64 0), i32* %2)
  br label %10

10:                                               ; preds = %67, %0
  %11 = load i32, i32* %2, align 4
  %12 = add nsw i32 %11, -1
  store i32 %12, i32* %2, align 4
  %13 = icmp ne i32 %11, 0
  br i1 %13, label %14, label %76

14:                                               ; preds = %10
  %15 = getelementptr inbounds [100 x double], [100 x double]* %5, i64 0, i64 0
  store double* %15, double** %8, align 8
  store double 0.000000e+00, double* %6, align 8
  store double 0.000000e+00, double* %7, align 8
  %16 = call i32 (i8*, ...) @__isoc99_scanf(i8* getelementptr inbounds ([3 x i8], [3 x i8]* @.str, i64 0, i64 0), i32* %3)
  store i32 0, i32* %4, align 4
  br label %17

17:                                               ; preds = %34, %14
  %18 = load i32, i32* %4, align 4
  %19 = load i32, i32* %3, align 4
  %20 = icmp slt i32 %18, %19
  br i1 %20, label %21, label %37

21:                                               ; preds = %17
  %22 = load double*, double** %8, align 8
  %23 = load i32, i32* %4, align 4
  %24 = sext i32 %23 to i64
  %25 = getelementptr inbounds double, double* %22, i64 %24
  %26 = call i32 (i8*, ...) @__isoc99_scanf(i8* getelementptr inbounds ([4 x i8], [4 x i8]* @.str.1, i64 0, i64 0), double* %25)
  %27 = load double, double* %6, align 8
  %28 = load double*, double** %8, align 8
  %29 = load i32, i32* %4, align 4
  %30 = sext i32 %29 to i64
  %31 = getelementptr inbounds double, double* %28, i64 %30
  %32 = load double, double* %31, align 8
  %33 = fadd double %27, %32
  store double %33, double* %6, align 8
  br label %34

34:                                               ; preds = %21
  %35 = load i32, i32* %4, align 4
  %36 = add nsw i32 %35, 1
  store i32 %36, i32* %4, align 4
  br label %17

37:                                               ; preds = %17
  %38 = load double, double* %6, align 8
  %39 = load i32, i32* %3, align 4
  %40 = sitofp i32 %39 to double
  %41 = fdiv double %38, %40
  store double %41, double* %6, align 8
  store i32 0, i32* %4, align 4
  br label %42

42:                                               ; preds = %64, %37
  %43 = load i32, i32* %4, align 4
  %44 = load i32, i32* %3, align 4
  %45 = icmp slt i32 %43, %44
  br i1 %45, label %46, label %67

46:                                               ; preds = %42
  %47 = load double, double* %7, align 8
  %48 = load double*, double** %8, align 8
  %49 = load i32, i32* %4, align 4
  %50 = sext i32 %49 to i64
  %51 = getelementptr inbounds double, double* %48, i64 %50
  %52 = load double, double* %51, align 8
  %53 = load double, double* %6, align 8
  %54 = fsub double %52, %53
  %55 = load double*, double** %8, align 8
  %56 = load i32, i32* %4, align 4
  %57 = sext i32 %56 to i64
  %58 = getelementptr inbounds double, double* %55, i64 %57
  %59 = load double, double* %58, align 8
  %60 = load double, double* %6, align 8
  %61 = fsub double %59, %60
  %62 = fmul double %54, %61
  %63 = fadd double %47, %62
  store double %63, double* %7, align 8
  br label %64

64:                                               ; preds = %46
  %65 = load i32, i32* %4, align 4
  %66 = add nsw i32 %65, 1
  store i32 %66, i32* %4, align 4
  br label %42

67:                                               ; preds = %42
  %68 = load double, double* %7, align 8
  %69 = load i32, i32* %3, align 4
  %70 = sitofp i32 %69 to double
  %71 = fdiv double %68, %70
  store double %71, double* %7, align 8
  %72 = load double, double* %7, align 8
  %73 = call double @sqrt(double %72) #3
  store double %73, double* %7, align 8
  %74 = load double, double* %7, align 8
  %75 = call i32 (i8*, ...) @printf(i8* getelementptr inbounds ([6 x i8], [6 x i8]* @.str.2, i64 0, i64 0), double %74)
  br label %10

76:                                               ; preds = %10
  %77 = load i32, i32* %1, align 4
  ret i32 %77
}

declare dso_local i32 @__isoc99_scanf(i8*, ...) #1

; Function Attrs: nounwind
declare dso_local double @sqrt(double) #2

declare dso_local i32 @printf(i8*, ...) #1


!llvm.module.flags = !{!0}
!llvm.ident = !{!1}

!0 = !{i32 1, !"wchar_size", i32 4}
!1 = !{!"clang version 10.0.0-4ubuntu1 "}
